; Function Attrs: mustprogress uwtable
define void @_ZNK6casadi13BSplineCommon10ad_forwardERKSt6vectorIS1_INS_2MXESaIS2_EESaIS4_EERS6_(ptr noundef nonnull align 8 dereferenceable(232) %0, ptr nocapture noundef nonnull readonly align 8 dereferenceable(24) %1, ptr nocapture noundef nonnull readonly align 8 dereferenceable(24) %2) unnamed_addr #3 align 2 personality ptr @__gxx_personality_v0 {
  %4 = alloca %"class.casadi::MX", align 8
  %5 = alloca %"class.casadi::MX", align 8
  %6 = load ptr, ptr %0, align 8
  %7 = getelementptr inbounds i8, ptr %6, i64 848
  %8 = load ptr, ptr %7, align 8
  call void %8(ptr dead_on_unwind nonnull writable sret(%"class.casadi::MX") align 8 %4, ptr noundef nonnull align 8 dereferenceable(232) %0)
  %9 = getelementptr inbounds i8, ptr %2, i64 8
  %10 = load ptr, ptr %9, align 8
  %11 = load ptr, ptr %2, align 8
  %.not = icmp eq ptr %10, %11
  br i1 %.not, label %._crit_edge, label %.lr.ph

.lr.ph:                                           ; preds = %3, %_ZN6casadi2MXaSERKS0_.exit
  %.01012 = phi i64 [ %19, %_ZN6casadi2MXaSERKS0_.exit ], [ 0, %3 ]
  %12 = load ptr, ptr %1, align 8
  %13 = getelementptr inbounds %"class.std::vector.3", ptr %12, i64 %.01012
  %14 = load ptr, ptr %13, align 8
  invoke void @_ZN6casadi2MX6mtimesERKS0_S2_(ptr dead_on_unwind nonnull writable sret(%"class.casadi::MX") align 8 %5, ptr noundef nonnull align 8 dereferenceable(8) %4, ptr noundef nonnull align 8 dereferenceable(8) %14)
          to label %_ZN6casadi6mtimesERKNS_2MXES2_.exit unwind label %27

_ZN6casadi6mtimesERKNS_2MXES2_.exit:              ; preds = %.lr.ph
  %15 = load ptr, ptr %2, align 8
  %16 = getelementptr inbounds %"class.std::vector.3", ptr %15, i64 %.01012
  %17 = load ptr, ptr %16, align 8
  %18 = invoke noundef nonnull align 8 dereferenceable(8) ptr @_ZN6casadi12SharedObjectaSERKS0_(ptr noundef nonnull align 8 dereferenceable(8) %17, ptr noundef nonnull align 8 dereferenceable(8) %5)
          to label %_ZN6casadi2MXaSERKS0_.exit unwind label %29

_ZN6casadi2MXaSERKS0_.exit:                       ; preds = %_ZN6casadi6mtimesERKNS_2MXES2_.exit
  call void @_ZN6casadi2MXD1Ev(ptr noundef nonnull align 8 dereferenceable(8) %5) #23
  %19 = add nuw nsw i64 %.01012, 1
  %20 = load ptr, ptr %9, align 8
  %21 = load ptr, ptr %2, align 8
  %22 = ptrtoint ptr %20 to i64
  %23 = ptrtoint ptr %21 to i64
  %24 = sub i64 %22, %23
  %25 = sdiv exact i64 %24, 24
  %26 = icmp ult i64 %19, %25
  br i1 %26, label %.lr.ph, label %._crit_edge, !llvm.loop !98

27:                                               ; preds = %.lr.ph
  %28 = landingpad { ptr, i32 }
          cleanup
  br label %31

29:                                               ; preds = %_ZN6casadi6mtimesERKNS_2MXES2_.exit
  %30 = landingpad { ptr, i32 }
          cleanup
  call void @_ZN6casadi2MXD1Ev(ptr noundef nonnull align 8 dereferenceable(8) %5) #23
  br label %31

._crit_edge:                                      ; preds = %_ZN6casadi2MXaSERKS0_.exit, %3
  call void @_ZN6casadi2MXD1Ev(ptr noundef nonnull align 8 dereferenceable(8) %4) #23
  ret void

31:                                               ; preds = %29, %27
  %.pn = phi { ptr, i32 } [ %30, %29 ], [ %28, %27 ]
  call void @_ZN6casadi2MXD1Ev(ptr noundef nonnull align 8 dereferenceable(8) %4) #23
  resume { ptr, i32 } %.pn
}